	.file	"Enclave.cpp"
	.text
.Ltext0:
	.data
	.align 16
	.type	_ZL7aes_key, @object
	.size	_ZL7aes_key, 16
_ZL7aes_key:
	.byte	0
	.byte	1
	.byte	2
	.byte	3
	.byte	4
	.byte	5
	.byte	6
	.byte	7
	.byte	8
	.byte	9
	.byte	10
	.byte	11
	.byte	12
	.byte	13
	.byte	14
	.byte	15
	.align 32
	.type	_ZL5p_key, @object
	.size	_ZL5p_key, 256
_ZL5p_key:
	.byte	0
	.byte	7
	.byte	7
	.byte	8
	.byte	3
	.byte	1
	.byte	4
	.byte	4
	.byte	9
	.byte	8
	.byte	0
	.byte	0
	.byte	0
	.byte	0
	.byte	0
	.zero	1
	.zero	240
	.section	.rodata
.LC0:
	.string	"0000000"
	.section	.data.rel.local,"aw",@progbits
	.align 8
	.type	_ZL3ctr, @object
	.size	_ZL3ctr, 8
_ZL3ctr:
	.quad	.LC0
	.globl	p_private1
	.section	.rodata
	.align 8
.LC1:
	.ascii	"30819f300d06092a864886f70d010101050003818d0030818902818100b6"
	.ascii	"6a25e6a9"
	.string	"d5f68d4150841af519149ae59276f1cc2444c7befbe8aa140f584bc2e8b8c67745866c7ed07ecfab131151c7aa962726bf5f29c30216240c0864802117d18ec92dff662d1cf1c68b4b7f83b0b763e7c75393c3a82a141813aca8b26388cb09df858e7cb2aaeee07bdcf55df336331aadf2d5f707fe203c6a5681710203010001"
	.section	.data.rel.local
	.align 8
	.type	p_private1, @object
	.size	p_private1, 8
p_private1:
	.quad	.LC1
	.section	.rodata
	.type	_ZNSt3__1L19piecewise_constructE, @object
	.size	_ZNSt3__1L19piecewise_constructE, 1
_ZNSt3__1L19piecewise_constructE:
	.zero	1
	.type	_ZStL7nothrow, @object
	.size	_ZStL7nothrow, 1
_ZStL7nothrow:
	.zero	1
	.type	_ZNSt3__1L13allocator_argE, @object
	.size	_ZNSt3__1L13allocator_argE, 1
_ZNSt3__1L13allocator_argE:
	.zero	1
	.type	_ZNSt3__112_GLOBAL__N_1L6ignoreE, @object
	.size	_ZNSt3__112_GLOBAL__N_1L6ignoreE, 1
_ZNSt3__112_GLOBAL__N_1L6ignoreE:
	.zero	1
	.globl	datapoint
	.data
	.align 8
	.type	datapoint, @object
	.size	datapoint, 8
datapoint:
	.quad	3276
	.globl	flag_s
	.bss
	.align 4
	.type	flag_s, @object
	.size	flag_s, 4
flag_s:
	.zero	4
	.text
	.globl	_Z17exception_handlerP17_exception_info_t
	.type	_Z17exception_handlerP17_exception_info_t, @function
_Z17exception_handlerP17_exception_info_t:
.LFB1538:
	.file 1 "Enclave/Enclave.cpp"
	.loc 1 85 0
	.cfi_startproc
	pushq	%rbp
	.cfi_def_cfa_offset 16
	.cfi_offset 6, -16
	movq	%rsp, %rbp
	.cfi_def_cfa_register 6
	movq	%rdi, -8(%rbp)
	.loc 1 86 0
	movq	-8(%rbp), %rax
	movl	148(%rax), %eax
	cmpl	$3, %eax
	je	.L16
	cmpl	$6, %eax
	.loc 1 91 0
	jmp	.L2
.L16:
	.loc 1 89 0
	nop
.L2:
	.loc 1 93 0
	movq	-8(%rbp), %rax
	movl	144(%rax), %eax
	cmpl	$19, %eax
	ja	.L5
	movl	%eax, %eax
	leaq	0(,%rax,4), %rdx
	leaq	.L7(%rip), %rax
	movl	(%rdx,%rax), %eax
	movslq	%eax, %rdx
	leaq	.L7(%rip), %rax
	addq	%rdx, %rax
	jmp	*%rax
	.section	.rodata
	.align 4
	.align 4
.L7:
	.long	.L5-.L7
	.long	.L5-.L7
	.long	.L5-.L7
	.long	.L5-.L7
	.long	.L5-.L7
	.long	.L5-.L7
	.long	.L5-.L7
	.long	.L5-.L7
	.long	.L5-.L7
	.long	.L5-.L7
	.long	.L5-.L7
	.long	.L5-.L7
	.long	.L5-.L7
	.long	.L5-.L7
	.long	.L5-.L7
	.long	.L5-.L7
	.long	.L5-.L7
	.long	.L5-.L7
	.long	.L5-.L7
	.long	.L5-.L7
	.text
.L5:
	.loc 1 112 0
	movl	$0, %eax
	.loc 1 113 0
	popq	%rbp
	.cfi_def_cfa 7, 8
	ret
	.cfi_endproc
.LFE1538:
	.size	_Z17exception_handlerP17_exception_info_t, .-_Z17exception_handlerP17_exception_info_t
	.section	.rodata
.LC2:
	.string	"sub first registered\n"
.LC3:
	.string	" sub not registered\n"
.LC4:
	.string	"sub last registered\n"
.LC5:
	.string	"not registered\n"
	.text
	.globl	_Z16create_exceptioni
	.type	_Z16create_exceptioni, @function
_Z16create_exceptioni:
.LFB1539:
	.loc 1 115 0
	.cfi_startproc
	pushq	%rbp
	.cfi_def_cfa_offset 16
	.cfi_offset 6, -16
	movq	%rsp, %rbp
	.cfi_def_cfa_register 6
	subq	$32, %rsp
	movl	%edi, -20(%rbp)
	.loc 1 116 0
	leaq	_Z17exception_handlerP17_exception_info_t(%rip), %rsi
	movl	$10, %edi
	call	sgx_register_exception_handler@PLT
	movq	%rax, -8(%rbp)
	.loc 1 117 0
	cmpq	$0, -8(%rbp)
	je	.L18
	.loc 1 119 0
	movl	flag_s(%rip), %eax
	addl	$1, %eax
	movl	%eax, flag_s(%rip)
	.loc 1 120 0
	leaq	.LC2(%rip), %rdi
	call	ocall_print_string@PLT
	.loc 1 121 0
	movl	flag_s(%rip), %eax
	movl	%eax, %edi
	call	_Z16create_exceptioni
	jmp	.L19
.L18:
	.loc 1 124 0
	leaq	.LC3(%rip), %rdi
	call	ocall_print_string@PLT
.L19:
	.loc 1 127 0
	leaq	_Z17exception_handlerP17_exception_info_t(%rip), %rsi
	movl	$0, %edi
	call	sgx_register_exception_handler@PLT
	movq	%rax, -8(%rbp)
	.loc 1 128 0
	cmpq	$0, -8(%rbp)
	je	.L20
	.loc 1 130 0
	movl	flag_s(%rip), %eax
	addl	$1, %eax
	movl	%eax, flag_s(%rip)
	.loc 1 132 0
	leaq	.LC4(%rip), %rdi
	call	ocall_print_string@PLT
	.loc 1 133 0
	movl	flag_s(%rip), %eax
	movl	%eax, %edi
	call	_Z16create_exceptioni
	jmp	.L21
.L20:
	.loc 1 137 0
	leaq	.LC5(%rip), %rdi
	call	ocall_print_string@PLT
.L21:
	.loc 1 140 0
	movl	$0, -12(%rbp)
	.loc 1 142 0
	cmpl	$19, -20(%rbp)
	jg	.L22
	.loc 1 143 0
	movl	$6, %eax
	movl	$0, %ecx
	cltd
	idivl	%ecx
	movl	%eax, -12(%rbp)
.L22:
	.loc 1 145 0
	nop
	leave
	.cfi_def_cfa 7, 8
	ret
	.cfi_endproc
.LFE1539:
	.size	_Z16create_exceptioni, .-_Z16create_exceptioni
	.section	.rodata
.LC6:
	.string	"first exception registered\n"
	.align 8
.LC7:
	.string	"first exception not registered\n"
.LC8:
	.string	"last registered\n"
.LC9:
	.string	"last not registered\n"
	.text
	.globl	_Z23add_hooks_for_exceptionv
	.type	_Z23add_hooks_for_exceptionv, @function
_Z23add_hooks_for_exceptionv:
.LFB1540:
	.loc 1 149 0
	.cfi_startproc
	pushq	%rbp
	.cfi_def_cfa_offset 16
	.cfi_offset 6, -16
	movq	%rsp, %rbp
	.cfi_def_cfa_register 6
	subq	$16, %rsp
	.loc 1 150 0
	leaq	_Z17exception_handlerP17_exception_info_t(%rip), %rsi
	movl	$10, %edi
	call	sgx_register_exception_handler@PLT
	movq	%rax, -8(%rbp)
	.loc 1 151 0
	cmpq	$0, -8(%rbp)
	je	.L24
	.loc 1 154 0
	movl	flag_s(%rip), %eax
	addl	$1, %eax
	movl	%eax, flag_s(%rip)
	.loc 1 155 0
	leaq	.LC6(%rip), %rdi
	call	ocall_print_string@PLT
	.loc 1 156 0
	movl	flag_s(%rip), %eax
	movl	%eax, %edi
	call	_Z16create_exceptioni
	jmp	.L25
.L24:
	.loc 1 159 0
	leaq	.LC7(%rip), %rdi
	call	ocall_print_string@PLT
.L25:
	.loc 1 162 0
	leaq	_Z17exception_handlerP17_exception_info_t(%rip), %rsi
	movl	$0, %edi
	call	sgx_register_exception_handler@PLT
	movq	%rax, -8(%rbp)
	.loc 1 163 0
	cmpq	$0, -8(%rbp)
	je	.L26
	.loc 1 165 0
	leaq	.LC8(%rip), %rdi
	call	ocall_print_string@PLT
	.loc 1 166 0
	movl	flag_s(%rip), %eax
	movl	%eax, %edi
	call	_Z16create_exceptioni
	jmp	.L27
.L26:
	.loc 1 169 0
	leaq	.LC9(%rip), %rdi
	call	ocall_print_string@PLT
.L27:
	.loc 1 172 0
	nop
	leave
	.cfi_def_cfa 7, 8
	ret
	.cfi_endproc
.LFE1540:
	.size	_Z23add_hooks_for_exceptionv, .-_Z23add_hooks_for_exceptionv
	.globl	_Z14inner_functionv
	.type	_Z14inner_functionv, @function
_Z14inner_functionv:
.LFB1541:
	.loc 1 182 0
	.cfi_startproc
	pushq	%rbp
	.cfi_def_cfa_offset 16
	.cfi_offset 6, -16
	movq	%rsp, %rbp
	.cfi_def_cfa_register 6
	.loc 1 183 0
	call	anchor_function@PLT
	.loc 1 184 0
	movl	$0, %eax
	.loc 1 185 0
	popq	%rbp
	.cfi_def_cfa 7, 8
	ret
	.cfi_endproc
.LFE1541:
	.size	_Z14inner_functionv, .-_Z14inner_functionv
	.globl	printf
	.type	printf, @function
printf:
.LFB1542:
	.loc 1 189 0
	.cfi_startproc
	pushq	%rbp
	.cfi_def_cfa_offset 16
	.cfi_offset 6, -16
	movq	%rsp, %rbp
	.cfi_def_cfa_register 6
	subq	$8432, %rsp
	movq	%rdi, -8424(%rbp)
	movq	%rsi, -168(%rbp)
	movq	%rdx, -160(%rbp)
	movq	%rcx, -152(%rbp)
	movq	%r8, -144(%rbp)
	movq	%r9, -136(%rbp)
	testb	%al, %al
	je	.L31
	movaps	%xmm0, -128(%rbp)
	movaps	%xmm1, -112(%rbp)
	movaps	%xmm2, -96(%rbp)
	movaps	%xmm3, -80(%rbp)
	movaps	%xmm4, -64(%rbp)
	movaps	%xmm5, -48(%rbp)
	movaps	%xmm6, -32(%rbp)
	movaps	%xmm7, -16(%rbp)
.L31:
	.loc 1 189 0
	movq	%fs:40, %rax
	movq	%rax, -184(%rbp)
	xorl	%eax, %eax
	.loc 1 190 0
	leaq	-8384(%rbp), %rdx
	movl	$0, %eax
	movl	$1024, %ecx
	movq	%rdx, %rdi
	rep stosq
	.loc 1 192 0
	movl	$8, -8408(%rbp)
	movl	$48, -8404(%rbp)
	leaq	16(%rbp), %rax
	movq	%rax, -8400(%rbp)
	leaq	-176(%rbp), %rax
	movq	%rax, -8392(%rbp)
	.loc 1 193 0
	leaq	-8408(%rbp), %rcx
	movq	-8424(%rbp), %rdx
	leaq	-8384(%rbp), %rax
	movl	$8192, %esi
	movq	%rax, %rdi
	call	vsnprintf@PLT
	.loc 1 195 0
	leaq	-8384(%rbp), %rax
	movq	%rax, %rdi
	call	ocall_print_string@PLT
	.loc 1 196 0
	leaq	-8384(%rbp), %rax
	movl	$8191, %esi
	movq	%rax, %rdi
	call	strnlen@PLT
	addl	$1, %eax
	.loc 1 197 0
	movq	-184(%rbp), %rsi
	xorq	%fs:40, %rsi
	je	.L33
	call	__stack_chk_fail@PLT
.L33:
	leave
	.cfi_def_cfa 7, 8
	ret
	.cfi_endproc
.LFE1542:
	.size	printf, .-printf
	.globl	_Z21redirect_mem_to_noepcPmm
	.type	_Z21redirect_mem_to_noepcPmm, @function
_Z21redirect_mem_to_noepcPmm:
.LFB1543:
	.loc 1 201 0
	.cfi_startproc
	pushq	%rbp
	.cfi_def_cfa_offset 16
	.cfi_offset 6, -16
	movq	%rsp, %rbp
	.cfi_def_cfa_register 6
	subq	$48, %rsp
	movq	%rdi, -40(%rbp)
	movq	%rsi, -48(%rbp)
	.loc 1 203 0
	movq	-48(%rbp), %rax
	salq	$3, %rax
	addq	$4096, %rax
	movq	%rax, -32(%rbp)
	.loc 1 204 0
	movq	-40(%rbp), %rcx
	movq	-32(%rbp), %rax
	movl	$3916, %edx
	movq	%rcx, %rsi
	movq	%rax, %rdi
	call	memcpy@PLT
	.loc 1 206 0
	addq	$516, -24(%rbp)
	.loc 1 208 0
	cmpq	$1, -24(%rbp)
	jne	.L40
	.loc 1 210 0
	movq	-32(%rbp), %rcx
	movq	-40(%rbp), %rax
	movl	$3916, %edx
	movq	%rcx, %rsi
	movq	%rax, %rdi
	call	memcpy@PLT
.LBB2:
	.loc 1 217 0
	cmpq	$1, -24(%rbp)
	jne	.L41
.LBB3:
	.loc 1 220 0
	leaq	_Z21redirect_mem_to_noepcPmm(%rip), %rax
	movq	%rax, -16(%rbp)
	.loc 1 221 0
	movq	-16(%rbp), %rax
	movq	%rax, -8(%rbp)
	.loc 1 222 0
	andq	$-4096, -8(%rbp)
	.loc 1 223 0
	movq	-8(%rbp), %rax
	movq	%rax, -16(%rbp)
	.loc 1 224 0
	movq	-16(%rbp), %rcx
	movq	-40(%rbp), %rax
	movl	$4096, %edx
	movq	%rcx, %rsi
	movq	%rax, %rdi
	call	memcpy@PLT
.LBE3:
.LBE2:
	.loc 1 231 0
	jmp	.L34
.L40:
	.loc 1 214 0
	nop
	jmp	.L34
.L41:
.LBB4:
	.loc 1 228 0
	nop
.L34:
.LBE4:
	.loc 1 232 0
	leave
	.cfi_def_cfa 7, 8
	ret
	.cfi_endproc
.LFE1543:
	.size	_Z21redirect_mem_to_noepcPmm, .-_Z21redirect_mem_to_noepcPmm
	.globl	_Z17print_data_from_vPm
	.type	_Z17print_data_from_vPm, @function
_Z17print_data_from_vPm:
.LFB1544:
	.loc 1 235 0
	.cfi_startproc
	pushq	%rbp
	.cfi_def_cfa_offset 16
	.cfi_offset 6, -16
	movq	%rsp, %rbp
	.cfi_def_cfa_register 6
	subq	$32, %rsp
	movq	%rdi, -24(%rbp)
	.loc 1 235 0
	movq	%fs:40, %rax
	movq	%rax, -8(%rbp)
	xorl	%eax, %eax
	.loc 1 238 0
	leaq	datapoint(%rip), %rax
	movq	%rax, -16(%rbp)
	.loc 1 239 0
	movq	-16(%rbp), %rax
	movq	%rax, -16(%rbp)
	.loc 1 241 0
	movq	-16(%rbp), %rdx
	movq	-24(%rbp), %rax
	movq	%rdx, (%rax)
	.loc 1 243 0
	movq	-16(%rbp), %rax
	movq	-24(%rbp), %rdx
	addq	$8, %rdx
	movq	(%rax), %rax
	movq	%rax, (%rdx)
	.loc 1 244 0
	nop
	movq	-8(%rbp), %rax
	xorq	%fs:40, %rax
	je	.L43
	call	__stack_chk_fail@PLT
.L43:
	leave
	.cfi_def_cfa 7, 8
	ret
	.cfi_endproc
.LFE1544:
	.size	_Z17print_data_from_vPm, .-_Z17print_data_from_vPm
	.globl	_Z17print_code_from_vPm
	.type	_Z17print_code_from_vPm, @function
_Z17print_code_from_vPm:
.LFB1545:
	.loc 1 248 0
	.cfi_startproc
	pushq	%rbp
	.cfi_def_cfa_offset 16
	.cfi_offset 6, -16
	movq	%rsp, %rbp
	.cfi_def_cfa_register 6
	movq	%rdi, -24(%rbp)
	.loc 1 251 0
	leaq	_Z17print_data_from_vPm(%rip), %rax
	movq	%rax, -8(%rbp)
	.loc 1 253 0
	movq	-8(%rbp), %rax
	addq	$7200, %rax
	movq	%rax, %rdx
	movq	-24(%rbp), %rax
	movq	%rdx, (%rax)
	.loc 1 255 0
	movq	-24(%rbp), %rax
	leaq	8(%rax), %rdx
	movq	-8(%rbp), %rax
	movq	7200(%rax), %rax
	movq	%rax, (%rdx)
	.loc 1 257 0
	nop
	popq	%rbp
	.cfi_def_cfa 7, 8
	ret
	.cfi_endproc
.LFE1545:
	.size	_Z17print_code_from_vPm, .-_Z17print_code_from_vPm
	.globl	_Z10manage_rsaPhPm
	.type	_Z10manage_rsaPhPm, @function
_Z10manage_rsaPhPm:
.LFB1546:
	.loc 1 285 0
	.cfi_startproc
	pushq	%rbp
	.cfi_def_cfa_offset 16
	.cfi_offset 6, -16
	movq	%rsp, %rbp
	.cfi_def_cfa_register 6
	subq	$576, %rsp
	movq	%rdi, -568(%rbp)
	movq	%rsi, -576(%rbp)
	.loc 1 285 0
	movq	%fs:40, %rax
	movq	%rax, -8(%rbp)
	xorl	%eax, %eax
	.loc 1 287 0
	movl	$1, -556(%rbp)
	.loc 1 289 0
	movq	$256, -520(%rbp)
	.loc 1 290 0
	movq	-520(%rbp), %rax
	shrq	%rax
	movq	%rax, -512(%rbp)
	.loc 1 291 0
	movq	$4, -504(%rbp)
	.loc 1 292 0
	movl	$0, -404(%rbp)
	movb	$1, -404(%rbp)
	movb	$1, -402(%rbp)
	.loc 1 293 0
	movq	-520(%rbp), %rax
	movq	%rax, %rdi
	call	malloc@PLT
	movq	%rax, -496(%rbp)
	.loc 1 294 0
	movq	-520(%rbp), %rax
	movq	%rax, %rdi
	call	malloc@PLT
	movq	%rax, -488(%rbp)
	.loc 1 295 0
	movq	-512(%rbp), %rax
	movq	%rax, %rdi
	call	malloc@PLT
	movq	%rax, -480(%rbp)
	.loc 1 296 0
	movq	-512(%rbp), %rax
	movq	%rax, %rdi
	call	malloc@PLT
	movq	%rax, -472(%rbp)
	.loc 1 297 0
	movq	-512(%rbp), %rax
	movq	%rax, %rdi
	call	malloc@PLT
	movq	%rax, -464(%rbp)
	.loc 1 298 0
	movq	-512(%rbp), %rax
	movq	%rax, %rdi
	call	malloc@PLT
	movq	%rax, -456(%rbp)
	.loc 1 299 0
	movq	-512(%rbp), %rax
	movq	%rax, %rdi
	call	malloc@PLT
	movq	%rax, -448(%rbp)
	.loc 1 300 0
	movq	-512(%rbp), %rdx
	movq	%rdx, %rax
	salq	$2, %rax
	addq	%rdx, %rax
	movq	%rax, %rdi
	call	malloc@PLT
	movq	%rax, -440(%rbp)
	.loc 1 302 0
	movq	$0, -552(%rbp)
	.loc 1 330 0
	movl	$0, -560(%rbp)
	.loc 1 331 0
	movq	$0, -432(%rbp)
	.loc 1 332 0
	movl	$384, %edi
	call	malloc@PLT
	movq	%rax, -432(%rbp)
	.loc 1 335 0
	movq	p_private1(%rip), %rax
	movq	%rax, -544(%rbp)
	.loc 1 337 0
	movq	-544(%rbp), %rax
	movzbl	(%rax), %eax
	movzbl	%al, %eax
	addl	$384, %eax
	sall	$24, %eax
	movl	%eax, %edx
	movq	-544(%rbp), %rax
	movzbl	(%rax), %eax
	movzbl	%al, %eax
	addl	$384, %eax
	sall	$8, %eax
	andl	$16711680, %eax
	orl	%eax, %edx
	movq	-544(%rbp), %rax
	movzbl	(%rax), %eax
	movzbl	%al, %eax
	addl	$384, %eax
	shrl	$8, %eax
	andl	$65280, %eax
	orl	%eax, %edx
	movq	-544(%rbp), %rax
	movzbl	(%rax), %eax
	movzbl	%al, %eax
	addl	$384, %eax
	shrl	$24, %eax
	orl	%edx, %eax
	movl	%eax, -560(%rbp)
	.loc 1 339 0
	movq	$0, -528(%rbp)
	.loc 1 340 0
	movq	$0, -528(%rbp)
.L47:
	.loc 1 340 0 is_stmt 0 discriminator 3
	cmpq	$383, -528(%rbp)
	ja	.L46
	.loc 1 341 0 is_stmt 1 discriminator 2
	movq	-544(%rbp), %rdx
	movl	$383, %eax
	subq	-528(%rbp), %rax
	addq	%rdx, %rax
	movq	-432(%rbp), %rcx
	movq	-528(%rbp), %rdx
	addq	%rcx, %rdx
	movzbl	(%rax), %eax
	movb	%al, (%rdx)
	.loc 1 340 0 discriminator 2
	addq	$1, -528(%rbp)
	jmp	.L47
.L46:
	.loc 1 345 0
	leaq	-552(%rbp), %rcx
	leaq	-560(%rbp), %rdx
	movq	-432(%rbp), %rax
	movq	%rcx, %r8
	movq	%rdx, %rcx
	movq	%rax, %rdx
	movl	$4, %esi
	movl	$384, %edi
	call	sgx_create_rsa_pub1_key@PLT
	testl	%eax, %eax
	setne	%al
	testb	%al, %al
	je	.L48
	.loc 1 346 0
	movq	-432(%rbp), %rax
	movq	8(%rax), %rdx
	movq	(%rax), %rax
	movq	-576(%rbp), %rcx
	movq	%rax, (%rcx)
	movq	%rdx, 8(%rcx)
.L48:
	.loc 1 351 0
	movq	-568(%rbp), %rax
	movq	%rax, -424(%rbp)
	.loc 1 352 0
	leaq	-400(%rbp), %rdx
	movl	$0, %eax
	movl	$48, %ecx
	movq	%rdx, %rdi
	rep stosq
	movb	$1, -400(%rbp)
	.loc 1 353 0
	movq	$384, -536(%rbp)
	.loc 1 354 0
	movq	$8, -416(%rbp)
	.loc 1 361 0
	movq	-552(%rbp), %rax
	movq	-416(%rbp), %rdi
	movq	-424(%rbp), %rcx
	leaq	-536(%rbp), %rdx
	leaq	-400(%rbp), %rsi
	movq	%rdi, %r8
	movq	%rax, %rdi
	call	sgx_rsa_pub_encrypt_sha256@PLT
	movl	%eax, -556(%rbp)
	.loc 1 362 0
	cmpl	$0, -556(%rbp)
	je	.L49
	.loc 1 363 0
	leaq	-400(%rbp), %rcx
	movq	-576(%rbp), %rax
	movl	$30, %edx
	movq	%rcx, %rsi
	movq	%rax, %rdi
	call	memcpy@PLT
	jmp	.L50
.L49:
	.loc 1 365 0
	leaq	-400(%rbp), %rcx
	movq	-576(%rbp), %rax
	movl	$512, %edx
	movq	%rcx, %rsi
	movq	%rax, %rdi
	call	memcpy@PLT
.L50:
	.loc 1 374 0
	movq	-496(%rbp), %rax
	movq	%rax, %rdi
	call	free@PLT
	.loc 1 375 0
	movq	-488(%rbp), %rax
	movq	%rax, %rdi
	call	free@PLT
	.loc 1 376 0
	movq	-480(%rbp), %rax
	movq	%rax, %rdi
	call	free@PLT
	.loc 1 377 0
	movq	-472(%rbp), %rax
	movq	%rax, %rdi
	call	free@PLT
	.loc 1 378 0
	movq	-464(%rbp), %rax
	movq	%rax, %rdi
	call	free@PLT
	.loc 1 379 0
	movq	-456(%rbp), %rax
	movq	%rax, %rdi
	call	free@PLT
	.loc 1 380 0
	movq	-448(%rbp), %rax
	movq	%rax, %rdi
	call	free@PLT
	.loc 1 381 0
	movq	-440(%rbp), %rax
	movq	%rax, %rdi
	call	free@PLT
	.loc 1 382 0
	nop
	.loc 1 383 0
	movq	-8(%rbp), %rax
	xorq	%fs:40, %rax
	je	.L52
	call	__stack_chk_fail@PLT
.L52:
	leave
	.cfi_def_cfa 7, 8
	ret
	.cfi_endproc
.LFE1546:
	.size	_Z10manage_rsaPhPm, .-_Z10manage_rsaPhPm
	.globl	_Z13create_secretPhS_
	.type	_Z13create_secretPhS_, @function
_Z13create_secretPhS_:
.LFB1547:
	.loc 1 388 0
	.cfi_startproc
	pushq	%rbp
	.cfi_def_cfa_offset 16
	.cfi_offset 6, -16
	movq	%rsp, %rbp
	.cfi_def_cfa_register 6
	subq	$64, %rsp
	movq	%rdi, -56(%rbp)
	movq	%rsi, -64(%rbp)
	.loc 1 388 0
	movq	%fs:40, %rax
	movq	%rax, -8(%rbp)
	xorl	%eax, %eax
	.loc 1 390 0
	movq	$0, -32(%rbp)
	movq	$0, -24(%rbp)
	movb	$4, -32(%rbp)
	movb	$3, -31(%rbp)
	movb	$2, -30(%rbp)
	movb	$1, -29(%rbp)
	.loc 1 391 0
	movl	$16, -44(%rbp)
	.loc 1 392 0
	movl	$4096, -40(%rbp)
	.loc 1 393 0
	movl	$4096, -36(%rbp)
	.loc 1 394 0
	movq	-64(%rbp), %rdi
	movl	-44(%rbp), %esi
	leaq	-32(%rbp), %rcx
	movl	-40(%rbp), %edx
	movq	-56(%rbp), %rax
	movq	%rdi, %r9
	movl	%esi, %r8d
	movq	%rax, %rsi
	leaq	_ZL5p_key(%rip), %rdi
	call	sgx_aes_ctr_encrypt@PLT
	.loc 1 397 0
	movl	$0, %eax
	.loc 1 398 0
	movq	-8(%rbp), %rdx
	xorq	%fs:40, %rdx
	je	.L55
	call	__stack_chk_fail@PLT
.L55:
	leave
	.cfi_def_cfa 7, 8
	ret
	.cfi_endproc
.LFE1547:
	.size	_Z13create_secretPhS_, .-_Z13create_secretPhS_
	.globl	_Z14create_secret1PhS_S_
	.type	_Z14create_secret1PhS_S_, @function
_Z14create_secret1PhS_S_:
.LFB1548:
	.loc 1 402 0
	.cfi_startproc
	pushq	%rbp
	.cfi_def_cfa_offset 16
	.cfi_offset 6, -16
	movq	%rsp, %rbp
	.cfi_def_cfa_register 6
	subq	$80, %rsp
	movq	%rdi, -56(%rbp)
	movq	%rsi, -64(%rbp)
	movq	%rdx, -72(%rbp)
	.loc 1 402 0
	movq	%fs:40, %rax
	movq	%rax, -8(%rbp)
	xorl	%eax, %eax
	.loc 1 404 0
	movq	$0, -32(%rbp)
	movq	$0, -24(%rbp)
	movb	$4, -32(%rbp)
	movb	$3, -31(%rbp)
	movb	$2, -30(%rbp)
	movb	$1, -29(%rbp)
	.loc 1 405 0
	movl	$16, -44(%rbp)
	.loc 1 406 0
	movl	$4096, -40(%rbp)
	.loc 1 407 0
	movl	$4096, -36(%rbp)
	.loc 1 408 0
	movq	-64(%rbp), %r8
	movl	-44(%rbp), %edi
	leaq	-32(%rbp), %rcx
	movl	-40(%rbp), %edx
	movq	-56(%rbp), %rsi
	movq	-72(%rbp), %rax
	movq	%r8, %r9
	movl	%edi, %r8d
	movq	%rax, %rdi
	call	sgx_aes_ctr_encrypt@PLT
	.loc 1 411 0
	movl	$0, %eax
	.loc 1 412 0
	movq	-8(%rbp), %rcx
	xorq	%fs:40, %rcx
	je	.L58
	call	__stack_chk_fail@PLT
.L58:
	leave
	.cfi_def_cfa 7, 8
	ret
	.cfi_endproc
.LFE1548:
	.size	_Z14create_secret1PhS_S_, .-_Z14create_secret1PhS_S_
	.globl	_Z14process_secretPhS_
	.type	_Z14process_secretPhS_, @function
_Z14process_secretPhS_:
.LFB1549:
	.loc 1 416 0
	.cfi_startproc
	pushq	%rbp
	.cfi_def_cfa_offset 16
	.cfi_offset 6, -16
	movq	%rsp, %rbp
	.cfi_def_cfa_register 6
	pushq	%rbx
	subq	$88, %rsp
	.cfi_offset 3, -24
	movq	%rdi, -88(%rbp)
	movq	%rsi, -96(%rbp)
	.loc 1 416 0
	movq	%fs:40, %rax
	movq	%rax, -24(%rbp)
	xorl	%eax, %eax
	.loc 1 425 0
	movq	%rsp, %rax
	movq	%rax, %rbx
	.loc 1 418 0
	movq	$0, -48(%rbp)
	movq	$0, -40(%rbp)
	movb	$4, -48(%rbp)
	movb	$3, -47(%rbp)
	movb	$2, -46(%rbp)
	movb	$1, -45(%rbp)
	.loc 1 419 0
	movl	$16, -72(%rbp)
	.loc 1 420 0
	movl	$4096, -68(%rbp)
	.loc 1 421 0
	movl	-68(%rbp), %eax
	subq	$1, %rax
	movq	%rax, -64(%rbp)
	movq	%rax, %rdx
	addq	$1, %rdx
	movq	%rdx, %r10
	movl	$0, %r11d
	movq	%rax, %rdx
	addq	$1, %rdx
	movq	%rdx, %r8
	movl	$0, %r9d
	leaq	1(%rax), %rdx
	movl	$16, %eax
	subq	$1, %rax
	addq	%rdx, %rax
	movl	$16, %ecx
	movl	$0, %edx
	divq	%rcx
	imulq	$16, %rax, %rax
	subq	%rax, %rsp
	movq	%rsp, %rax
	addq	$0, %rax
	movq	%rax, -56(%rbp)
	.loc 1 422 0
	movq	-96(%rbp), %rdi
	movl	-72(%rbp), %esi
	leaq	-48(%rbp), %rcx
	movl	-68(%rbp), %edx
	movq	-88(%rbp), %rax
	movq	%rdi, %r9
	movl	%esi, %r8d
	movq	%rax, %rsi
	leaq	_ZL5p_key(%rip), %rdi
	call	sgx_aes_ctr_decrypt@PLT
	.loc 1 425 0
	movl	$0, %eax
	movq	%rbx, %rsp
	.loc 1 427 0
	movq	-24(%rbp), %rbx
	xorq	%fs:40, %rbx
	je	.L61
	call	__stack_chk_fail@PLT
.L61:
	movq	-8(%rbp), %rbx
	leave
	.cfi_def_cfa 7, 8
	ret
	.cfi_endproc
.LFE1549:
	.size	_Z14process_secretPhS_, .-_Z14process_secretPhS_
	.globl	_Z20one_time_dump_memoryiPm
	.type	_Z20one_time_dump_memoryiPm, @function
_Z20one_time_dump_memoryiPm:
.LFB1550:
	.loc 1 463 0
	.cfi_startproc
	pushq	%rbp
	.cfi_def_cfa_offset 16
	.cfi_offset 6, -16
	movq	%rsp, %rbp
	.cfi_def_cfa_register 6
	subq	$65600, %rsp
	movl	%edi, -65588(%rbp)
	movq	%rsi, -65600(%rbp)
	.loc 1 463 0
	movq	%fs:40, %rax
	movq	%rax, -8(%rbp)
	xorl	%eax, %eax
	.loc 1 465 0
	movl	$4096, -65580(%rbp)
	.loc 1 466 0
	movl	-65580(%rbp), %eax
	cltq
	movq	%rax, %rdi
	call	malloc@PLT
	movq	%rax, -65576(%rbp)
	.loc 1 468 0
	movl	-65588(%rbp), %eax
	sall	$4, %eax
	cltq
	leaq	70523875(%rax), %rdx
	leaq	worker(%rip), %rax
	addq	%rdx, %rax
	movq	%rax, -65568(%rbp)
	.loc 1 469 0
	leaq	worker(%rip), %rax
	leaq	70523875(%rax), %rax
	movq	%rax, %rdx
	movq	-65600(%rbp), %rax
	movq	%rdx, (%rax)
	.loc 1 470 0
	movl	-65580(%rbp), %eax
	movslq	%eax, %rdx
	movq	-65568(%rbp), %rcx
	movq	-65576(%rbp), %rax
	movq	%rcx, %rsi
	movq	%rax, %rdi
	call	memcpy@PLT
	.loc 1 471 0
	movl	-65580(%rbp), %eax
	movslq	%eax, %rdx
	movq	-65600(%rbp), %rax
	leaq	16(%rax), %rcx
	movq	-65568(%rbp), %rax
	movq	%rax, %rsi
	movq	%rcx, %rdi
	call	memcpy@PLT
	.loc 1 473 0
	movq	-65568(%rbp), %rax
	addq	$104, %rax
	movq	%rax, -65560(%rbp)
	.loc 1 474 0
	movq	-65600(%rbp), %rax
	leaq	8(%rax), %rdx
	movq	-65560(%rbp), %rax
	movq	(%rax), %rax
	movq	%rax, (%rdx)
	.loc 1 475 0
	movq	-65600(%rbp), %rax
	leaq	-8192(%rax), %rdx
	movq	-65560(%rbp), %rax
	movq	%rdx, (%rax)
	.loc 1 486 0
	leaq	-65552(%rbp), %rax
	movl	$65536, %edx
	movl	$0, %esi
	movq	%rax, %rdi
	call	memset@PLT
	.loc 1 491 0
	movq	-65576(%rbp), %rax
	movq	%rax, %rdi
	call	free@PLT
	.loc 1 492 0
	nop
	.loc 1 493 0
	movq	-8(%rbp), %rax
	xorq	%fs:40, %rax
	je	.L64
	call	__stack_chk_fail@PLT
.L64:
	leave
	.cfi_def_cfa 7, 8
	ret
	.cfi_endproc
.LFE1550:
	.size	_Z20one_time_dump_memoryiPm, .-_Z20one_time_dump_memoryiPm
	.globl	_Z24sgx_create_report_definePK14_target_info_tPK18_sgx_report_data_tP9_report_t
	.type	_Z24sgx_create_report_definePK14_target_info_tPK18_sgx_report_data_tP9_report_t, @function
_Z24sgx_create_report_definePK14_target_info_tPK18_sgx_report_data_tP9_report_t:
.LFB1551:
	.loc 1 498 0
	.cfi_startproc
	leaq	8(%rsp), %r10
	.cfi_def_cfa 10, 0
	andq	$-512, %rsp
	pushq	-8(%r10)
	pushq	%rbp
	.cfi_escape 0x10,0x6,0x2,0x76,0
	movq	%rsp, %rbp
	pushq	%r10
	.cfi_escape 0xf,0x3,0x76,0x78,0x6
	subq	$2536, %rsp
	movq	%rdi, -2184(%rbp)
	movq	%rsi, -2192(%rbp)
	movq	%rdx, -2200(%rbp)
	.loc 1 498 0
	movq	%fs:40, %rax
	movq	%rax, -504(%rbp)
	xorl	%eax, %eax
	.loc 1 504 0
	leaq	-2160(%rbp), %rdx
	movl	$0, %eax
	movl	$16, %ecx
	movq	%rdx, %rdi
	rep stosq
	.loc 1 505 0
	leaq	-2032(%rbp), %rdx
	movl	$0, %eax
	movl	$64, %ecx
	movq	%rdx, %rdi
	rep stosq
	.loc 1 506 0
	leaq	-1520(%rbp), %rdx
	movl	$0, %eax
	movl	$64, %ecx
	movq	%rdx, %rdi
	rep stosq
	.loc 1 509 0
	movl	$0, -2172(%rbp)
	.loc 1 521 0
	leaq	-1520(%rbp), %rdx
	leaq	-2160(%rbp), %rcx
	leaq	-2032(%rbp), %rax
	movq	%rcx, %rsi
	movq	%rax, %rdi
	call	do_ereport_define@PLT
	movl	%eax, -2172(%rbp)
.LBB5:
	.loc 1 528 0
	cmpl	$0, -2172(%rbp)
	jne	.L66
.LBB6:
.LBB7:
	.loc 1 531 0
	movq	$0, -2168(%rbp)
.L68:
	.loc 1 531 0 is_stmt 0 discriminator 3
	cmpq	$53, -2168(%rbp)
	ja	.L66
	.loc 1 533 0 is_stmt 1 discriminator 2
	movq	-2168(%rbp), %rax
	leaq	0(,%rax,8), %rdx
	leaq	-1520(%rbp), %rax
	addq	%rdx, %rax
	movq	-2168(%rbp), %rdx
	leaq	0(,%rdx,8), %rcx
	movq	-2200(%rbp), %rdx
	addq	%rcx, %rdx
	movq	(%rax), %rax
	movq	%rax, (%rdx)
	.loc 1 531 0 discriminator 2
	addq	$1, -2168(%rbp)
	jmp	.L68
.L66:
.LBE7:
.LBE6:
.LBE5:
	.loc 1 538 0
	cmpl	$0, -2172(%rbp)
	je	.L69
	.loc 1 538 0 is_stmt 0 discriminator 1
	movl	$1, %eax
	jmp	.L71
.L69:
	.loc 1 538 0 discriminator 2
	movl	$0, %eax
.L71:
	.loc 1 539 0 is_stmt 1
	movq	-504(%rbp), %rsi
	xorq	%fs:40, %rsi
	je	.L72
	call	__stack_chk_fail@PLT
.L72:
	addq	$2536, %rsp
	popq	%r10
	.cfi_restore 10
	.cfi_def_cfa 10, 0
	popq	%rbp
	.cfi_restore 6
	leaq	-8(%r10), %rsp
	.cfi_def_cfa 7, 8
	ret
	.cfi_endproc
.LFE1551:
	.size	_Z24sgx_create_report_definePK14_target_info_tPK18_sgx_report_data_tP9_report_t, .-_Z24sgx_create_report_definePK14_target_info_tPK18_sgx_report_data_tP9_report_t
	.globl	worker
	.type	worker, @function
worker:
.LFB1552:
	.loc 1 542 0
	.cfi_startproc
	pushq	%rbp
	.cfi_def_cfa_offset 16
	.cfi_offset 6, -16
	movq	%rsp, %rbp
	.cfi_def_cfa_register 6
	subq	$560, %rsp
	movq	%rdi, -552(%rbp)
	.loc 1 542 0
	movq	%fs:40, %rax
	movq	%rax, -8(%rbp)
	xorl	%eax, %eax
	.loc 1 545 0
	movl	$3, -536(%rbp)
	.loc 1 553 0
	movl	$1, -532(%rbp)
	.loc 1 579 0
	movl	$0, -540(%rbp)
.L75:
	.loc 1 579 0 is_stmt 0 discriminator 3
	movl	-540(%rbp), %eax
	cmpl	-532(%rbp), %eax
	jge	.L77
	.loc 1 580 0 is_stmt 1 discriminator 2
	movq	-552(%rbp), %rdx
	movl	-540(%rbp), %eax
	movq	%rdx, %rsi
	movl	%eax, %edi
	call	_Z20one_time_dump_memoryiPm
	.loc 1 579 0 discriminator 2
	addl	$1, -540(%rbp)
	jmp	.L75
.L77:
	.loc 1 611 0
	nop
	movq	-8(%rbp), %rax
	xorq	%fs:40, %rax
	je	.L76
	call	__stack_chk_fail@PLT
.L76:
	leave
	.cfi_def_cfa 7, 8
	ret
	.cfi_endproc
.LFE1552:
	.size	worker, .-worker
	.globl	_Z6strlenPc
	.type	_Z6strlenPc, @function
_Z6strlenPc:
.LFB1553:
	.loc 1 619 0
	.cfi_startproc
	pushq	%rbp
	.cfi_def_cfa_offset 16
	.cfi_offset 6, -16
	movq	%rsp, %rbp
	.cfi_def_cfa_register 6
	movq	%rdi, -24(%rbp)
	.loc 1 620 0
	movl	$0, -4(%rbp)
.L80:
	.loc 1 621 0
	cmpl	$79, -4(%rbp)
	jg	.L79
	.loc 1 621 0 is_stmt 0 discriminator 1
	movq	-24(%rbp), %rax
	movzbl	(%rax), %eax
	testb	%al, %al
	je	.L79
	.loc 1 623 0 is_stmt 1
	addl	$1, -4(%rbp)
	.loc 1 624 0
	addq	$1, -24(%rbp)
	.loc 1 621 0
	jmp	.L80
.L79:
	.loc 1 626 0
	movl	-4(%rbp), %eax
	.loc 1 627 0
	popq	%rbp
	.cfi_def_cfa 7, 8
	ret
	.cfi_endproc
.LFE1553:
	.size	_Z6strlenPc, .-_Z6strlenPc
	.globl	addint
	.type	addint, @function
addint:
.LFB1554:
	.loc 1 630 0
	.cfi_startproc
	pushq	%rbp
	.cfi_def_cfa_offset 16
	.cfi_offset 6, -16
	movq	%rsp, %rbp
	.cfi_def_cfa_register 6
	subq	$32, %rsp
	movq	%rdi, -8(%rbp)
	movq	%rsi, -16(%rbp)
	movq	%rdx, -24(%rbp)
	.loc 1 643 0
	movq	-24(%rbp), %rax
	movq	%rax, %rdi
	call	worker
	.loc 1 660 0
	nop
	leave
	.cfi_def_cfa 7, 8
	ret
	.cfi_endproc
.LFE1554:
	.size	addint, .-addint
.Letext0:
	.file 2 "/opt/intel/sgxsdk/include/tlibc/sys/_types.h"
	.file 3 "<built-in>"
	.file 4 "/opt/intel/sgxsdk/include/tlibc/stdlib.h"
	.file 5 "/opt/intel/sgxsdk/include/tlibc/sys/stdint.h"
	.file 6 "/opt/intel/sgxsdk/include/tlibc/wchar.h"
	.file 7 "/opt/intel/sgxsdk/include/tlibc/stddef.h"
	.file 8 "/opt/intel/sgxsdk/include/sgx_error.h"
	.file 9 "/opt/intel/sgxsdk/include/tlibc/stdarg.h"
	.file 10 "/opt/intel/sgxsdk/include/sgx_attributes.h"
	.file 11 "/opt/intel/sgxsdk/include/sgx_key.h"
	.file 12 "/opt/intel/sgxsdk/include/sgx_report.h"
	.file 13 "/opt/intel/sgxsdk/include/sgx_tcrypto.h"
	.file 14 "Enclave/Crypto.h"
	.file 15 "/opt/intel/sgxsdk/include/sgx_quote.h"
	.file 16 "/opt/intel/sgxsdk/include/libcxx/__config"
	.file 17 "/opt/intel/sgxsdk/include/libcxx/cstring"
	.file 18 "/opt/intel/sgxsdk/include/libcxx/cstdio"
	.file 19 "/opt/intel/sgxsdk/include/libcxx/cwctype"
	.file 20 "/opt/intel/sgxsdk/include/libcxx/cwchar"
	.file 21 "/opt/intel/sgxsdk/include/libcxx/cstddef"
	.file 22 "/opt/intel/sgxsdk/include/libcxx/type_traits"
	.file 23 "/opt/intel/sgxsdk/include/libcxx/cstdint"
	.file 24 "/opt/intel/sgxsdk/include/libcxx/utility"
	.file 25 "/opt/intel/sgxsdk/include/libcxx/__functional_base"
	.file 26 "/opt/intel/sgxsdk/include/libcxx/tuple"
	.file 27 "/opt/intel/sgxsdk/include/libcxx/cstdlib"
	.file 28 "/opt/intel/sgxsdk/include/libcxx/atomic"
	.file 29 "/opt/intel/sgxsdk/include/libcxx/memory"
	.file 30 "/opt/intel/sgxsdk/include/libcxx/iosfwd"
	.file 31 "/opt/intel/sgxsdk/include/libcxx/cctype"
	.file 32 "/opt/intel/sgxsdk/include/libcxx/__tuple"
	.file 33 "/opt/intel/sgxsdk/include/tlibc/../stdc++/new"
	.file 34 "/opt/intel/sgxsdk/include/libcxx/new"
	.file 35 "/opt/intel/sgxsdk/include/libcxx/limits"
	.file 36 "/opt/intel/sgxsdk/include/libcxx/iterator"
	.file 37 "/opt/intel/sgxsdk/include/libcxx/stdexcept"
	.file 38 "/opt/intel/sgxsdk/include/libcxx/algorithm"
	.file 39 "/opt/intel/sgxsdk/include/libcxx/string"
	.file 40 "/opt/intel/sgxsdk/include/tlibc/string.h"
	.file 41 "/opt/intel/sgxsdk/include/tlibc/wctype.h"
	.file 42 "/opt/intel/sgxsdk/include/sgx_trts_exception.h"
	.section	.note.GNU-stack,"",@progbits
